target datalayout = "e-m:e-p270:32:32-p271:32:32-p272:64:64-i64:64-i128:128-f80:128-n8:16:32:64-S128"
target triple = "x86_64-pc-linux-gnu"

; Function Attrs: nounwind null_pointer_is_valid sspstrong uwtable
define internal i32 @rlc_channel_hash_func(ptr noundef %0) #4 {
  %2 = alloca ptr, align 8
  %3 = alloca ptr, align 8
  store ptr %0, ptr %2, align 8
  call void @llvm.lifetime.start.p0(i64 8, ptr %3) #16
  %4 = load ptr, ptr %2, align 8
  store ptr %4, ptr %3, align 8
  %5 = load ptr, ptr %3, align 8
  %6 = load i32, ptr %5, align 4
  %7 = and i32 %6, 65535
  %8 = mul i32 %7, 1024
  %9 = load ptr, ptr %3, align 8
  %10 = load i32, ptr %9, align 4
  %11 = lshr i32 %10, 16
  %12 = and i32 %11, 7
  %13 = mul i32 %12, 64
  %14 = add i32 %8, %13
  %15 = load ptr, ptr %3, align 8
  %16 = load i32, ptr %15, align 4
  %17 = lshr i32 %16, 19
  %18 = and i32 %17, 31
  %19 = mul i32 %18, 2
  %20 = add i32 %14, %19
  %21 = load ptr, ptr %3, align 8
  %22 = load i32, ptr %21, align 4
  %23 = lshr i32 %22, 24
  %24 = and i32 %23, 1
  %25 = add i32 %20, %24
  call void @llvm.lifetime.end.p0(i64 8, ptr %3) #16
  ret i32 %25
}