; Function Attrs: mustprogress nofree norecurse nosync nounwind null_pointer_is_valid sspstrong willreturn memory(argmem: read) uwtable
define internal range(i32 0, 67108352) i32 @rlc_channel_hash_func(ptr noundef readonly captures(none) %0) #4 {
  %2 = load i32, ptr %0, align 4
  %3 = shl i32 %2, 10
  %4 = and i32 %3, 67107840
  %5 = lshr i32 %2, 10
  %6 = and i32 %5, 448
  %7 = or disjoint i32 %4, %6
  %8 = lshr i32 %2, 18
  %9 = and i32 %8, 62
  %10 = or disjoint i32 %7, %9
  %11 = lshr i32 %2, 24
  %12 = and i32 %11, 1
  %13 = or disjoint i32 %10, %12
  ret i32 %13
}